target datalayout = "e-m:e-p270:32:32-p271:32:32-p272:64:64-i64:64-i128:128-f80:128-n8:16:32:64-S128"
target triple = "x86_64-pc-linux-gnu"

%struct._object = type { %union.anon, ptr }
%union.anon = type { i64 }
%struct.PyVarObject = type { %struct._object, i64 }
%struct.PyListObject = type { %struct.PyVarObject, ptr, i64 }
%struct.anon = type { i32, i32 }

@PyExc_IndexError = external global ptr, align 8
@.str.12 = private unnamed_addr constant [19 x i8] c"index out of range\00", align 1

; Function Attrs: alwaysinline nounwind uwtable
define internal i32 @_Py_IsImmortal(ptr noundef %0) #4 {
  %2 = alloca ptr, align 8
  store ptr %0, ptr %2, align 8, !tbaa !3
  %3 = load ptr, ptr %2, align 8, !tbaa !3
  %4 = getelementptr inbounds nuw %struct._object, ptr %3, i32 0, i32 0
  %5 = getelementptr inbounds nuw %struct.anon, ptr %4, i32 0, i32 0
  %6 = load i32, ptr %5, align 8, !tbaa !31
  %7 = icmp slt i32 %6, 0
  %8 = zext i1 %7 to i32
  ret i32 %8
}

; Function Attrs: inlinehint nounwind uwtable
define internal i64 @Py_SIZE(ptr noundef %0) #3 {
  %2 = alloca ptr, align 8
  store ptr %0, ptr %2, align 8, !tbaa !3
  %3 = load ptr, ptr %2, align 8, !tbaa !3
  %4 = getelementptr inbounds nuw %struct.PyVarObject, ptr %3, i32 0, i32 1
  %5 = load i64, ptr %4, align 8, !tbaa !32
  ret i64 %5
}

; Function Attrs: inlinehint nounwind uwtable
define internal void @PyList_SET_ITEM(ptr noundef %0, i64 noundef %1, ptr noundef %2) #3 {
  %4 = alloca ptr, align 8
  %5 = alloca i64, align 8
  %6 = alloca ptr, align 8
  %7 = alloca ptr, align 8
  store ptr %0, ptr %4, align 8, !tbaa !3
  store i64 %1, ptr %5, align 8, !tbaa !10
  store ptr %2, ptr %6, align 8, !tbaa !3
  call void @llvm.lifetime.start.p0(i64 8, ptr %7) #5
  %8 = load ptr, ptr %4, align 8, !tbaa !3
  store ptr %8, ptr %7, align 8, !tbaa !25
  %9 = load ptr, ptr %6, align 8, !tbaa !3
  %10 = load ptr, ptr %7, align 8, !tbaa !25
  %11 = getelementptr inbounds nuw %struct.PyListObject, ptr %10, i32 0, i32 1
  %12 = load ptr, ptr %11, align 8, !tbaa !26
  %13 = load i64, ptr %5, align 8, !tbaa !10
  %14 = getelementptr ptr, ptr %12, i64 %13
  store ptr %9, ptr %14, align 8, !tbaa !3
  call void @llvm.lifetime.end.p0(i64 8, ptr %7) #5
  ret void
}

; Function Attrs: alwaysinline nounwind uwtable
define internal void @Py_DECREF(ptr noundef %0) #4 {
  %2 = alloca ptr, align 8
  store ptr %0, ptr %2, align 8, !tbaa !3
  %3 = load ptr, ptr %2, align 8, !tbaa !3
  %4 = call i32 @_Py_IsImmortal(ptr noundef %3)
  %5 = icmp ne i32 %4, 0
  br i1 %5, label %6, label %7

6:                                                ; preds = %1
  br label %16

7:                                                ; preds = %1
  %8 = load ptr, ptr %2, align 8, !tbaa !3
  %9 = getelementptr inbounds nuw %struct._object, ptr %8, i32 0, i32 0
  %10 = getelementptr inbounds nuw %struct.anon, ptr %9, i32 0, i32 0
  %11 = load i32, ptr %10, align 8, !tbaa !31
  %12 = add i32 %11, -1
  store i32 %12, ptr %10, align 8, !tbaa !31
  %13 = icmp eq i32 %12, 0
  br i1 %13, label %14, label %16

14:                                               ; preds = %7
  %15 = load ptr, ptr %2, align 8, !tbaa !3
  call void @_Py_Dealloc(ptr noundef %15)
  br label %16

16:                                               ; preds = %6, %14, %7
  ret void
}

; Function Attrs: alwaysinline nounwind uwtable
define internal void @Py_INCREF(ptr noundef %0) #4 {
  %2 = alloca ptr, align 8
  %3 = alloca i32, align 4
  %4 = alloca i32, align 4
  store ptr %0, ptr %2, align 8, !tbaa !3
  call void @llvm.lifetime.start.p0(i64 4, ptr %3) #5
  %5 = load ptr, ptr %2, align 8, !tbaa !3
  %6 = getelementptr inbounds nuw %struct._object, ptr %5, i32 0, i32 0
  %7 = getelementptr inbounds nuw %struct.anon, ptr %6, i32 0, i32 0
  %8 = load i32, ptr %7, align 8, !tbaa !31
  store i32 %8, ptr %3, align 4, !tbaa !28
  %9 = load i32, ptr %3, align 4, !tbaa !28
  %10 = icmp slt i32 %9, 0
  br i1 %10, label %11, label %12

11:                                               ; preds = %1
  store i32 1, ptr %4, align 4
  br label %18

12:                                               ; preds = %1
  %13 = load i32, ptr %3, align 4, !tbaa !28
  %14 = add i32 %13, 1
  %15 = load ptr, ptr %2, align 8, !tbaa !3
  %16 = getelementptr inbounds nuw %struct._object, ptr %15, i32 0, i32 0
  %17 = getelementptr inbounds nuw %struct.anon, ptr %16, i32 0, i32 0
  store i32 %14, ptr %17, align 8, !tbaa !31
  store i32 0, ptr %4, align 4
  br label %18

18:                                               ; preds = %12, %11
  call void @llvm.lifetime.end.p0(i64 4, ptr %3) #5
  %19 = load i32, ptr %4, align 4
  switch i32 %19, label %21 [
    i32 0, label %20
    i32 1, label %20
  ]

20:                                               ; preds = %18, %18
  ret void

21:                                               ; preds = %18
  unreachable
}

; Function Attrs: inlinehint nounwind uwtable
define internal i64 @PyList_GET_SIZE(ptr noundef %0) #3 {
  %2 = alloca ptr, align 8
  %3 = alloca ptr, align 8
  store ptr %0, ptr %2, align 8, !tbaa !3
  call void @llvm.lifetime.start.p0(i64 8, ptr %3) #5
  %4 = load ptr, ptr %2, align 8, !tbaa !3
  store ptr %4, ptr %3, align 8, !tbaa !25
  %5 = load ptr, ptr %3, align 8, !tbaa !25
  %6 = call i64 @Py_SIZE(ptr noundef %5)
  call void @llvm.lifetime.end.p0(i64 8, ptr %3) #5
  ret i64 %6
}

; Function Attrs: nounwind uwtable
define internal ptr @heappop_internal(ptr noundef %0, ptr noundef %1) #0 {
  %3 = alloca ptr, align 8
  %4 = alloca ptr, align 8
  %5 = alloca ptr, align 8
  %6 = alloca ptr, align 8
  %7 = alloca ptr, align 8
  %8 = alloca i64, align 8
  %9 = alloca i32, align 4
  store ptr %0, ptr %4, align 8, !tbaa !3
  store ptr %1, ptr %5, align 8, !tbaa !25
  call void @llvm.lifetime.start.p0(i64 8, ptr %6) #5
  call void @llvm.lifetime.start.p0(i64 8, ptr %7) #5
  call void @llvm.lifetime.start.p0(i64 8, ptr %8) #5
  %10 = load ptr, ptr %4, align 8, !tbaa !3
  %11 = call i64 @PyList_GET_SIZE(ptr noundef %10)
  store i64 %11, ptr %8, align 8, !tbaa !10
  %12 = load i64, ptr %8, align 8, !tbaa !10
  %13 = icmp eq i64 %12, 0
  br i1 %13, label %14, label %16

14:                                               ; preds = %2
  %15 = load ptr, ptr @PyExc_IndexError, align 8, !tbaa !3
  call void @PyErr_SetString(ptr noundef %15, ptr noundef @.str.12)
  store ptr null, ptr %3, align 8
  store i32 1, ptr %9, align 4
  br label %56

16:                                               ; preds = %2
  %17 = load ptr, ptr %4, align 8, !tbaa !3
  %18 = getelementptr inbounds nuw %struct.PyListObject, ptr %17, i32 0, i32 1
  %19 = load ptr, ptr %18, align 8, !tbaa !26
  %20 = load i64, ptr %8, align 8, !tbaa !10
  %21 = sub i64 %20, 1
  %22 = getelementptr ptr, ptr %19, i64 %21
  %23 = load ptr, ptr %22, align 8, !tbaa !3
  store ptr %23, ptr %6, align 8, !tbaa !3
  %24 = load ptr, ptr %6, align 8, !tbaa !3
  call void @Py_INCREF(ptr noundef %24)
  %25 = load ptr, ptr %4, align 8, !tbaa !3
  %26 = load i64, ptr %8, align 8, !tbaa !10
  %27 = sub i64 %26, 1
  %28 = load i64, ptr %8, align 8, !tbaa !10
  %29 = call i32 @PyList_SetSlice(ptr noundef %25, i64 noundef %27, i64 noundef %28, ptr noundef null)
  %30 = icmp ne i32 %29, 0
  br i1 %30, label %31, label %33

31:                                               ; preds = %16
  %32 = load ptr, ptr %6, align 8, !tbaa !3
  call void @Py_DECREF(ptr noundef %32)
  store ptr null, ptr %3, align 8
  store i32 1, ptr %9, align 4
  br label %56

33:                                               ; preds = %16
  %34 = load i64, ptr %8, align 8, !tbaa !10
  %35 = add i64 %34, -1
  store i64 %35, ptr %8, align 8, !tbaa !10
  %36 = load i64, ptr %8, align 8, !tbaa !10
  %37 = icmp ne i64 %36, 0
  br i1 %37, label %40, label %38

38:                                               ; preds = %33
  %39 = load ptr, ptr %6, align 8, !tbaa !3
  store ptr %39, ptr %3, align 8
  store i32 1, ptr %9, align 4
  br label %56

40:                                               ; preds = %33
  %41 = load ptr, ptr %4, align 8, !tbaa !3
  %42 = getelementptr inbounds nuw %struct.PyListObject, ptr %41, i32 0, i32 1
  %43 = load ptr, ptr %42, align 8, !tbaa !26
  %44 = getelementptr ptr, ptr %43, i64 0
  %45 = load ptr, ptr %44, align 8, !tbaa !3
  store ptr %45, ptr %7, align 8, !tbaa !3
  %46 = load ptr, ptr %4, align 8, !tbaa !3
  %47 = load ptr, ptr %6, align 8, !tbaa !3
  call void @PyList_SET_ITEM(ptr noundef %46, i64 noundef 0, ptr noundef %47)
  %48 = load ptr, ptr %5, align 8, !tbaa !25
  %49 = load ptr, ptr %4, align 8, !tbaa !3
  %50 = call i32 %48(ptr noundef %49, i64 noundef 0)
  %51 = icmp ne i32 %50, 0
  br i1 %51, label %52, label %54

52:                                               ; preds = %40
  %53 = load ptr, ptr %7, align 8, !tbaa !3
  call void @Py_DECREF(ptr noundef %53)
  store ptr null, ptr %3, align 8
  store i32 1, ptr %9, align 4
  br label %56

54:                                               ; preds = %40
  %55 = load ptr, ptr %7, align 8, !tbaa !3
  store ptr %55, ptr %3, align 8
  store i32 1, ptr %9, align 4
  br label %56

56:                                               ; preds = %54, %52, %38, %31, %14
  call void @llvm.lifetime.end.p0(i64 8, ptr %8) #5
  call void @llvm.lifetime.end.p0(i64 8, ptr %7) #5
  call void @llvm.lifetime.end.p0(i64 8, ptr %6) #5
  %57 = load ptr, ptr %3, align 8
  ret ptr %57
}