; Function Attrs: nounwind uwtable
define internal fastcc ptr @heappop_internal(ptr noundef %0, ptr noundef readonly captures(none) %1) unnamed_addr #0 {
  %3 = getelementptr i8, ptr %0, i64 16
  %.val = load i64, ptr %3, align 8, !tbaa !21
  %4 = icmp eq i64 %.val, 0
  br i1 %4, label %5, label %7

5:                                                ; preds = %2
  %6 = load ptr, ptr @PyExc_IndexError, align 8, !tbaa !3
  tail call void @PyErr_SetString(ptr noundef %6, ptr noundef nonnull @.str.12) #2
  br label %Py_DECREF.exit23

7:                                                ; preds = %2
  %8 = getelementptr inbounds nuw i8, ptr %0, i64 24
  %9 = load ptr, ptr %8, align 8, !tbaa !23
  %10 = add i64 %.val, -1
  %11 = getelementptr ptr, ptr %9, i64 %10
  %12 = load ptr, ptr %11, align 8, !tbaa !3
  %13 = load i32, ptr %12, align 8, !tbaa !22
  %14 = icmp slt i32 %13, 0
  br i1 %14, label %Py_INCREF.exit, label %15

15:                                               ; preds = %7
  %16 = add nuw i32 %13, 1
  store i32 %16, ptr %12, align 8, !tbaa !22
  br label %Py_INCREF.exit

Py_INCREF.exit:                                   ; preds = %7, %15
  %17 = tail call i32 @PyList_SetSlice(ptr noundef nonnull %0, i64 noundef %10, i64 noundef %.val, ptr noundef null) #2
  %.not = icmp eq i32 %17, 0
  br i1 %.not, label %24, label %18

18:                                               ; preds = %Py_INCREF.exit
  %19 = load i32, ptr %12, align 8, !tbaa !22
  %.not.i22 = icmp sgt i32 %19, -1
  br i1 %.not.i22, label %20, label %Py_DECREF.exit23

20:                                               ; preds = %18
  %21 = add nsw i32 %19, -1
  store i32 %21, ptr %12, align 8, !tbaa !22
  %22 = icmp eq i32 %21, 0
  br i1 %22, label %23, label %Py_DECREF.exit23

23:                                               ; preds = %20
  tail call void @_Py_Dealloc(ptr noundef nonnull %12) #2
  br label %Py_DECREF.exit23

24:                                               ; preds = %Py_INCREF.exit
  %.not20 = icmp eq i64 %.val, 1
  br i1 %.not20, label %Py_DECREF.exit23, label %25

25:                                               ; preds = %24
  %26 = load ptr, ptr %8, align 8, !tbaa !23
  %27 = load ptr, ptr %26, align 8, !tbaa !3
  store ptr %12, ptr %26, align 8, !tbaa !3
  %28 = tail call i32 %1(ptr noundef nonnull %0, i64 noundef 0) #2, !callees !26
  %.not21 = icmp eq i32 %28, 0
  br i1 %.not21, label %Py_DECREF.exit23, label %29

29:                                               ; preds = %25
  %30 = load i32, ptr %27, align 8, !tbaa !22
  %.not.i = icmp sgt i32 %30, -1
  br i1 %.not.i, label %31, label %Py_DECREF.exit23

31:                                               ; preds = %29
  %32 = add nsw i32 %30, -1
  store i32 %32, ptr %27, align 8, !tbaa !22
  %33 = icmp eq i32 %32, 0
  br i1 %33, label %34, label %Py_DECREF.exit23

34:                                               ; preds = %31
  tail call void @_Py_Dealloc(ptr noundef nonnull %27) #2
  br label %Py_DECREF.exit23

Py_DECREF.exit23:                                 ; preds = %34, %31, %29, %23, %20, %18, %25, %24, %5
  %.0 = phi ptr [ null, %5 ], [ %12, %24 ], [ %27, %25 ], [ null, %18 ], [ null, %20 ], [ null, %23 ], [ null, %29 ], [ null, %31 ], [ null, %34 ]
  ret ptr %.0
}